target datalayout = "e-m:e-p270:32:32-p271:32:32-p272:64:64-i64:64-i128:128-f80:128-n8:16:32:64-S128"
target triple = "x86_64-pc-linux-gnu"

%struct.refspec_item = type { i8, ptr, ptr, ptr }
%struct.refspec = type { ptr, i32, i32, i32 }

@.str = private unnamed_addr constant [21 x i8] c"invalid refspec '%s'\00", align 1
@.str.5 = private unnamed_addr constant [27 x i8] c"size_t overflow: %lu * %lu\00", align 1

; Function Attrs: inlinehint nounwind uwtable
define internal i64 @st_mult(i64 noundef %0, i64 noundef %1) #4 {
  %3 = alloca i64, align 8
  %4 = alloca i64, align 8
  store i64 %0, ptr %3, align 8, !tbaa !16
  store i64 %1, ptr %4, align 8, !tbaa !16
  %5 = load i64, ptr %3, align 8, !tbaa !16
  %6 = icmp ne i64 %5, 0
  br i1 %6, label %7, label %15

7:                                                ; preds = %2
  %8 = load i64, ptr %4, align 8, !tbaa !16
  %9 = load i64, ptr %3, align 8, !tbaa !16
  %10 = udiv i64 -1, %9
  %11 = icmp ugt i64 %8, %10
  br i1 %11, label %12, label %15

12:                                               ; preds = %7
  %13 = load i64, ptr %3, align 8, !tbaa !16
  %14 = load i64, ptr %4, align 8, !tbaa !16
  call void (ptr, ...) @die(ptr noundef @.str.5, i64 noundef %13, i64 noundef %14) #12
  unreachable

15:                                               ; preds = %7, %2
  %16 = load i64, ptr %3, align 8, !tbaa !16
  %17 = load i64, ptr %4, align 8, !tbaa !16
  %18 = mul i64 %16, %17
  ret i64 %18
}

; Function Attrs: nounwind uwtable
define dso_local void @refspec_item_init_or_die(ptr noundef %0, ptr noundef %1, i32 noundef %2) #0 {
  %4 = alloca ptr, align 8
  %5 = alloca ptr, align 8
  %6 = alloca i32, align 4
  store ptr %0, ptr %4, align 8, !tbaa !4
  store ptr %1, ptr %5, align 8, !tbaa !9
  store i32 %2, ptr %6, align 4, !tbaa !11
  %7 = load ptr, ptr %4, align 8, !tbaa !4
  %8 = load ptr, ptr %5, align 8, !tbaa !9
  %9 = load i32, ptr %6, align 4, !tbaa !11
  %10 = call i32 @refspec_item_init(ptr noundef %7, ptr noundef %8, i32 noundef %9)
  %11 = icmp ne i32 %10, 0
  br i1 %11, label %15, label %12

12:                                               ; preds = %3
  %13 = call ptr @_(ptr noundef @.str)
  %14 = load ptr, ptr %5, align 8, !tbaa !9
  call void (ptr, ...) @die(ptr noundef %13, ptr noundef %14) #12
  unreachable

15:                                               ; preds = %3
  ret void
}

; Function Attrs: nounwind uwtable
define dso_local void @refspec_append(ptr noundef %0, ptr noundef %1) #0 {
  %3 = alloca ptr, align 8
  %4 = alloca ptr, align 8
  %5 = alloca %struct.refspec_item, align 8
  store ptr %0, ptr %3, align 8, !tbaa !43
  store ptr %1, ptr %4, align 8, !tbaa !9
  call void @llvm.lifetime.start.p0(i64 32, ptr %5) #10
  %6 = load ptr, ptr %4, align 8, !tbaa !9
  %7 = load ptr, ptr %3, align 8, !tbaa !43
  %8 = getelementptr inbounds nuw %struct.refspec, ptr %7, i32 0, i32 3
  %9 = load i32, ptr %8, align 8, !tbaa !45
  call void @refspec_item_init_or_die(ptr noundef %5, ptr noundef %6, i32 noundef %9)
  br label %10

10:                                               ; preds = %2
  %11 = load ptr, ptr %3, align 8, !tbaa !43
  %12 = getelementptr inbounds nuw %struct.refspec, ptr %11, i32 0, i32 2
  %13 = load i32, ptr %12, align 4, !tbaa !47
  %14 = add nsw i32 %13, 1
  %15 = load ptr, ptr %3, align 8, !tbaa !43
  %16 = getelementptr inbounds nuw %struct.refspec, ptr %15, i32 0, i32 1
  %17 = load i32, ptr %16, align 8, !tbaa !48
  %18 = icmp sgt i32 %14, %17
  br i1 %18, label %19, label %59

19:                                               ; preds = %10
  %20 = load ptr, ptr %3, align 8, !tbaa !43
  %21 = getelementptr inbounds nuw %struct.refspec, ptr %20, i32 0, i32 1
  %22 = load i32, ptr %21, align 8, !tbaa !48
  %23 = add nsw i32 %22, 16
  %24 = mul nsw i32 %23, 3
  %25 = sdiv i32 %24, 2
  %26 = load ptr, ptr %3, align 8, !tbaa !43
  %27 = getelementptr inbounds nuw %struct.refspec, ptr %26, i32 0, i32 2
  %28 = load i32, ptr %27, align 4, !tbaa !47
  %29 = add nsw i32 %28, 1
  %30 = icmp slt i32 %25, %29
  br i1 %30, label %31, label %38

31:                                               ; preds = %19
  %32 = load ptr, ptr %3, align 8, !tbaa !43
  %33 = getelementptr inbounds nuw %struct.refspec, ptr %32, i32 0, i32 2
  %34 = load i32, ptr %33, align 4, !tbaa !47
  %35 = add nsw i32 %34, 1
  %36 = load ptr, ptr %3, align 8, !tbaa !43
  %37 = getelementptr inbounds nuw %struct.refspec, ptr %36, i32 0, i32 1
  store i32 %35, ptr %37, align 8, !tbaa !48
  br label %47

38:                                               ; preds = %19
  %39 = load ptr, ptr %3, align 8, !tbaa !43
  %40 = getelementptr inbounds nuw %struct.refspec, ptr %39, i32 0, i32 1
  %41 = load i32, ptr %40, align 8, !tbaa !48
  %42 = add nsw i32 %41, 16
  %43 = mul nsw i32 %42, 3
  %44 = sdiv i32 %43, 2
  %45 = load ptr, ptr %3, align 8, !tbaa !43
  %46 = getelementptr inbounds nuw %struct.refspec, ptr %45, i32 0, i32 1
  store i32 %44, ptr %46, align 8, !tbaa !48
  br label %47

47:                                               ; preds = %38, %31
  %48 = load ptr, ptr %3, align 8, !tbaa !43
  %49 = getelementptr inbounds nuw %struct.refspec, ptr %48, i32 0, i32 0
  %50 = load ptr, ptr %49, align 8, !tbaa !49
  %51 = load ptr, ptr %3, align 8, !tbaa !43
  %52 = getelementptr inbounds nuw %struct.refspec, ptr %51, i32 0, i32 1
  %53 = load i32, ptr %52, align 8, !tbaa !48
  %54 = sext i32 %53 to i64
  %55 = call i64 @st_mult(i64 noundef 32, i64 noundef %54)
  %56 = call ptr @xrealloc(ptr noundef %50, i64 noundef %55)
  %57 = load ptr, ptr %3, align 8, !tbaa !43
  %58 = getelementptr inbounds nuw %struct.refspec, ptr %57, i32 0, i32 0
  store ptr %56, ptr %58, align 8, !tbaa !49
  br label %59

59:                                               ; preds = %47, %10
  br label %60

60:                                               ; preds = %59
  br label %61

61:                                               ; preds = %60
  %62 = load ptr, ptr %3, align 8, !tbaa !43
  %63 = getelementptr inbounds nuw %struct.refspec, ptr %62, i32 0, i32 0
  %64 = load ptr, ptr %63, align 8, !tbaa !49
  %65 = load ptr, ptr %3, align 8, !tbaa !43
  %66 = getelementptr inbounds nuw %struct.refspec, ptr %65, i32 0, i32 2
  %67 = load i32, ptr %66, align 4, !tbaa !47
  %68 = sext i32 %67 to i64
  %69 = getelementptr inbounds %struct.refspec_item, ptr %64, i64 %68
  call void @llvm.memcpy.p0.p0.i64(ptr align 8 %69, ptr align 8 %5, i64 32, i1 false), !tbaa.struct !50
  %70 = load ptr, ptr %3, align 8, !tbaa !43
  %71 = getelementptr inbounds nuw %struct.refspec, ptr %70, i32 0, i32 2
  %72 = load i32, ptr %71, align 4, !tbaa !47
  %73 = add nsw i32 %72, 1
  store i32 %73, ptr %71, align 4, !tbaa !47
  call void @llvm.lifetime.end.p0(i64 32, ptr %5) #10
  ret void
}