; Function Attrs: nounwind uwtable
define dso_local void @refspec_append(ptr noundef captures(none) %0, ptr noundef %1) local_unnamed_addr #0 {
  %3 = alloca %struct.refspec_item, align 8
  call void @llvm.lifetime.start.p0(i64 32, ptr nonnull %3) #13
  %4 = getelementptr inbounds nuw i8, ptr %0, i64 16
  %5 = load i32, ptr %4, align 8, !tbaa !39
  %6 = call i32 @refspec_item_init(ptr noundef nonnull %3, ptr noundef %1, i32 noundef %5)
  %.not.i = icmp eq i32 %6, 0
  br i1 %.not.i, label %7, label %refspec_item_init_or_die.exit

7:                                                ; preds = %2
  %8 = tail call fastcc ptr @_()
  tail call void (ptr, ...) @die(ptr noundef %8, ptr noundef %1) #15
  unreachable

refspec_item_init_or_die.exit:                    ; preds = %2
  %9 = getelementptr inbounds nuw i8, ptr %0, i64 12
  %10 = load i32, ptr %9, align 4, !tbaa !42
  %11 = getelementptr inbounds nuw i8, ptr %0, i64 8
  %12 = load i32, ptr %11, align 8, !tbaa !43
  %.not = icmp slt i32 %10, %12
  br i1 %.not, label %refspec_item_init_or_die.exit._crit_edge, label %13

refspec_item_init_or_die.exit._crit_edge:         ; preds = %refspec_item_init_or_die.exit
  %.pre = load ptr, ptr %0, align 8, !tbaa !44
  br label %24

13:                                               ; preds = %refspec_item_init_or_die.exit
  %14 = add nsw i32 %10, 1
  %15 = mul i32 %12, 3
  %16 = add i32 %15, 48
  %17 = sdiv i32 %16, 2
  %.not18 = icmp sgt i32 %17, %10
  %. = select i1 %.not18, i32 %17, i32 %14
  store i32 %., ptr %11, align 8, !tbaa !43
  %18 = sext i32 %. to i64
  %19 = icmp slt i32 %., 0
  br i1 %19, label %20, label %st_mult.exit

20:                                               ; preds = %13
  tail call void (ptr, ...) @die(ptr noundef nonnull @.str.5, i64 noundef 32, i64 noundef range(i64 -2147483648, 2147483648) %18) #15
  unreachable

st_mult.exit:                                     ; preds = %13
  %21 = load ptr, ptr %0, align 8, !tbaa !44
  %22 = shl nuw nsw i64 %18, 5
  %23 = tail call ptr @xrealloc(ptr noundef %21, i64 noundef %22) #13
  store ptr %23, ptr %0, align 8, !tbaa !44
  %.pre19 = load i32, ptr %9, align 4, !tbaa !42
  br label %24

24:                                               ; preds = %refspec_item_init_or_die.exit._crit_edge, %st_mult.exit
  %25 = phi i32 [ %10, %refspec_item_init_or_die.exit._crit_edge ], [ %.pre19, %st_mult.exit ]
  %26 = phi ptr [ %.pre, %refspec_item_init_or_die.exit._crit_edge ], [ %23, %st_mult.exit ]
  %27 = sext i32 %25 to i64
  %28 = getelementptr inbounds %struct.refspec_item, ptr %26, i64 %27
  call void @llvm.memcpy.p0.p0.i64(ptr noundef nonnull align 8 dereferenceable(32) %28, ptr noundef nonnull align 8 dereferenceable(32) %3, i64 32, i1 false), !tbaa.struct !45
  %29 = load i32, ptr %9, align 4, !tbaa !42
  %30 = add nsw i32 %29, 1
  store i32 %30, ptr %9, align 4, !tbaa !42
  call void @llvm.lifetime.end.p0(i64 32, ptr nonnull %3) #13
  ret void
}